target datalayout = "e-m:e-p270:32:32-p271:32:32-p272:64:64-i64:64-i128:128-f80:128-n8:16:32:64-S128"
target triple = "x86_64-pc-linux-gnu"

@_ZL7codegen = internal global i8 0, align 1

; Function Attrs: mustprogress uwtable
define dso_local void @_Z10setupStateP9lua_State(ptr noundef %0) #1 {
  %2 = alloca ptr, align 8
  store ptr %0, ptr %2, align 8
  %3 = load i8, ptr @_ZL7codegen, align 1
  %4 = trunc i8 %3 to i1
  br i1 %4, label %5, label %7

5:                                                ; preds = %1
  %6 = load ptr, ptr %2, align 8
  call void @_ZN4Luau7CodeGen6createEP9lua_State(ptr noundef %6)
  br label %7

7:                                                ; preds = %5, %1
  %8 = load ptr, ptr %2, align 8
  call void @_Z13luaL_openlibsP9lua_State(ptr noundef %8)
  %9 = load ptr, ptr %2, align 8
  call void @_Z13lua_pushvalueP9lua_Statei(ptr noundef %9, i32 noundef -10002)
  %10 = load ptr, ptr %2, align 8
  call void @_Z13luaL_registerP9lua_StatePKcPK8luaL_Reg(ptr noundef %10, ptr noundef null, ptr noundef @_ZZ10setupStateP9lua_StateE5funcs)
  %11 = load ptr, ptr %2, align 8
  call void @_Z10lua_settopP9lua_Statei(ptr noundef %11, i32 noundef -2)
  %12 = load ptr, ptr %2, align 8
  call void @_Z12luaL_sandboxP9lua_State(ptr noundef %12)
  ret void
}