; Function Attrs: mustprogress uwtable
define dso_local void @_Z10setupStateP9lua_State(ptr noundef %0) local_unnamed_addr #1 {
  %.b6 = load i1, ptr @_ZL7codegen, align 1
  br i1 %.b6, label %2, label %3

2:                                                ; preds = %1
  tail call void @_ZN4Luau7CodeGen6createEP9lua_State(ptr noundef %0)
  br label %3

3:                                                ; preds = %2, %1
  tail call void @_Z13luaL_openlibsP9lua_State(ptr noundef %0)
  tail call void @_Z13lua_pushvalueP9lua_Statei(ptr noundef %0, i32 noundef -10002)
  tail call void @_Z13luaL_registerP9lua_StatePKcPK8luaL_Reg(ptr noundef %0, ptr noundef null, ptr noundef nonnull @_ZZ10setupStateP9lua_StateE5funcs)
  tail call void @_Z10lua_settopP9lua_Statei(ptr noundef %0, i32 noundef -2)
  tail call void @_Z12luaL_sandboxP9lua_State(ptr noundef %0)
  ret void
}